; Function Attrs: mustprogress nofree norecurse nosync nounwind willreturn memory(argmem: read) uwtable
define noundef zeroext i1 @_ZNK7rocksdb15ForwardIterator5ValidEv(ptr noundef nonnull readonly align 16 captures(none) dereferenceable(2944) %0) unnamed_addr #13 align 2 {
  %2 = getelementptr inbounds nuw i8, ptr %0, i64 376
  %3 = load i8, ptr %2, align 8, !tbaa !391, !range !290, !noundef !291
  %4 = trunc nuw i8 %3 to i1
  %5 = getelementptr inbounds nuw i8, ptr %0, i64 417
  %6 = load i8, ptr %5, align 1, !range !290
  %7 = trunc nuw i8 %6 to i1
  %8 = xor i1 %7, true
  %9 = select i1 %4, i1 %8, i1 false
  ret i1 %9
}